target datalayout = "e-m:e-p270:32:32-p271:32:32-p272:64:64-i64:64-i128:128-f80:128-n8:16:32:64-S128"
target triple = "x86_64-pc-linux-gnu"

%struct.UriMemoryManagerStruct = type { ptr, ptr, ptr, ptr, ptr, ptr }
%struct.UriUriStructW = type { %struct.UriTextRangeStructW, %struct.UriTextRangeStructW, %struct.UriTextRangeStructW, %struct.UriHostDataStructW, %struct.UriTextRangeStructW, ptr, ptr, %struct.UriTextRangeStructW, %struct.UriTextRangeStructW, i32, i32, ptr }
%struct.UriHostDataStructW = type { ptr, ptr, %struct.UriTextRangeStructW }
%struct.UriTextRangeStructW = type { ptr, ptr }
%struct.UriPathSegmentStructW = type { %struct.UriTextRangeStructW, ptr, ptr }

; Function Attrs: inlinehint nounwind uwtable
define internal i32 @uriMergePathW(ptr noundef %0, ptr noundef %1, ptr noundef %2) #4 {
  %4 = alloca i32, align 4
  %5 = alloca ptr, align 8
  %6 = alloca ptr, align 8
  %7 = alloca ptr, align 8
  %8 = alloca ptr, align 8
  %9 = alloca ptr, align 8
  %10 = alloca i32, align 4
  %11 = alloca ptr, align 8
  %12 = alloca ptr, align 8
  store ptr %0, ptr %5, align 8, !tbaa !25
  store ptr %1, ptr %6, align 8, !tbaa !25
  store ptr %2, ptr %7, align 8, !tbaa !10
  call void @llvm.lifetime.start.p0(i64 8, ptr %8) #5
  call void @llvm.lifetime.start.p0(i64 8, ptr %9) #5
  %13 = load ptr, ptr %6, align 8, !tbaa !25
  %14 = getelementptr inbounds nuw %struct.UriUriStructW, ptr %13, i32 0, i32 5
  %15 = load ptr, ptr %14, align 8, !tbaa !35
  %16 = icmp eq ptr %15, null
  br i1 %16, label %17, label %18

17:                                               ; preds = %3
  store i32 1, ptr %4, align 4
  store i32 1, ptr %10, align 4
  br label %122

18:                                               ; preds = %3
  %19 = load ptr, ptr %5, align 8, !tbaa !25
  %20 = getelementptr inbounds nuw %struct.UriUriStructW, ptr %19, i32 0, i32 5
  %21 = load ptr, ptr %20, align 8, !tbaa !35
  %22 = icmp eq ptr %21, null
  br i1 %22, label %23, label %44

23:                                               ; preds = %18
  call void @llvm.lifetime.start.p0(i64 8, ptr %11) #5
  %24 = load ptr, ptr %7, align 8, !tbaa !10
  %25 = getelementptr inbounds nuw %struct.UriMemoryManagerStruct, ptr %24, i32 0, i32 0
  %26 = load ptr, ptr %25, align 8, !tbaa !38
  %27 = load ptr, ptr %7, align 8, !tbaa !10
  %28 = call ptr %26(ptr noundef %27, i64 noundef 32)
  store ptr %28, ptr %11, align 8, !tbaa !46
  %29 = load ptr, ptr %11, align 8, !tbaa !46
  %30 = icmp eq ptr %29, null
  br i1 %30, label %31, label %32

31:                                               ; preds = %23
  store i32 0, ptr %4, align 4
  store i32 1, ptr %10, align 4
  br label %41

32:                                               ; preds = %23
  %33 = load ptr, ptr %11, align 8, !tbaa !46
  %34 = getelementptr inbounds nuw %struct.UriPathSegmentStructW, ptr %33, i32 0, i32 1
  store ptr null, ptr %34, align 8, !tbaa !50
  %35 = load ptr, ptr %11, align 8, !tbaa !46
  %36 = load ptr, ptr %5, align 8, !tbaa !25
  %37 = getelementptr inbounds nuw %struct.UriUriStructW, ptr %36, i32 0, i32 5
  store ptr %35, ptr %37, align 8, !tbaa !35
  %38 = load ptr, ptr %11, align 8, !tbaa !46
  %39 = load ptr, ptr %5, align 8, !tbaa !25
  %40 = getelementptr inbounds nuw %struct.UriUriStructW, ptr %39, i32 0, i32 6
  store ptr %38, ptr %40, align 8, !tbaa !51
  store i32 0, ptr %10, align 4
  br label %41

41:                                               ; preds = %32, %31
  call void @llvm.lifetime.end.p0(i64 8, ptr %11) #5
  %42 = load i32, ptr %10, align 4
  switch i32 %42, label %122 [
    i32 0, label %43
  ]

43:                                               ; preds = %41
  br label %44

44:                                               ; preds = %43, %18
  %45 = load ptr, ptr %6, align 8, !tbaa !25
  %46 = getelementptr inbounds nuw %struct.UriUriStructW, ptr %45, i32 0, i32 5
  %47 = load ptr, ptr %46, align 8, !tbaa !35
  %48 = getelementptr inbounds nuw %struct.UriPathSegmentStructW, ptr %47, i32 0, i32 0
  %49 = getelementptr inbounds nuw %struct.UriTextRangeStructW, ptr %48, i32 0, i32 0
  %50 = load ptr, ptr %49, align 8, !tbaa !47
  %51 = load ptr, ptr %5, align 8, !tbaa !25
  %52 = getelementptr inbounds nuw %struct.UriUriStructW, ptr %51, i32 0, i32 6
  %53 = load ptr, ptr %52, align 8, !tbaa !51
  %54 = getelementptr inbounds nuw %struct.UriPathSegmentStructW, ptr %53, i32 0, i32 0
  %55 = getelementptr inbounds nuw %struct.UriTextRangeStructW, ptr %54, i32 0, i32 0
  store ptr %50, ptr %55, align 8, !tbaa !47
  %56 = load ptr, ptr %6, align 8, !tbaa !25
  %57 = getelementptr inbounds nuw %struct.UriUriStructW, ptr %56, i32 0, i32 5
  %58 = load ptr, ptr %57, align 8, !tbaa !35
  %59 = getelementptr inbounds nuw %struct.UriPathSegmentStructW, ptr %58, i32 0, i32 0
  %60 = getelementptr inbounds nuw %struct.UriTextRangeStructW, ptr %59, i32 0, i32 1
  %61 = load ptr, ptr %60, align 8, !tbaa !49
  %62 = load ptr, ptr %5, align 8, !tbaa !25
  %63 = getelementptr inbounds nuw %struct.UriUriStructW, ptr %62, i32 0, i32 6
  %64 = load ptr, ptr %63, align 8, !tbaa !51
  %65 = getelementptr inbounds nuw %struct.UriPathSegmentStructW, ptr %64, i32 0, i32 0
  %66 = getelementptr inbounds nuw %struct.UriTextRangeStructW, ptr %65, i32 0, i32 1
  store ptr %61, ptr %66, align 8, !tbaa !49
  %67 = load ptr, ptr %6, align 8, !tbaa !25
  %68 = getelementptr inbounds nuw %struct.UriUriStructW, ptr %67, i32 0, i32 5
  %69 = load ptr, ptr %68, align 8, !tbaa !35
  %70 = getelementptr inbounds nuw %struct.UriPathSegmentStructW, ptr %69, i32 0, i32 1
  %71 = load ptr, ptr %70, align 8, !tbaa !50
  store ptr %71, ptr %8, align 8, !tbaa !46
  %72 = load ptr, ptr %8, align 8, !tbaa !46
  %73 = icmp eq ptr %72, null
  br i1 %73, label %74, label %75

74:                                               ; preds = %44
  store i32 1, ptr %4, align 4
  store i32 1, ptr %10, align 4
  br label %122

75:                                               ; preds = %44
  %76 = load ptr, ptr %5, align 8, !tbaa !25
  %77 = getelementptr inbounds nuw %struct.UriUriStructW, ptr %76, i32 0, i32 6
  %78 = load ptr, ptr %77, align 8, !tbaa !51
  store ptr %78, ptr %9, align 8, !tbaa !46
  br label %79

79:                                               ; preds = %120, %75
  call void @llvm.lifetime.start.p0(i64 8, ptr %12) #5
  %80 = load ptr, ptr %7, align 8, !tbaa !10
  %81 = getelementptr inbounds nuw %struct.UriMemoryManagerStruct, ptr %80, i32 0, i32 0
  %82 = load ptr, ptr %81, align 8, !tbaa !38
  %83 = load ptr, ptr %7, align 8, !tbaa !10
  %84 = call ptr %82(ptr noundef %83, i64 noundef 32)
  store ptr %84, ptr %12, align 8, !tbaa !46
  %85 = load ptr, ptr %12, align 8, !tbaa !46
  %86 = icmp eq ptr %85, null
  br i1 %86, label %87, label %93

87:                                               ; preds = %79
  %88 = load ptr, ptr %9, align 8, !tbaa !46
  %89 = getelementptr inbounds nuw %struct.UriPathSegmentStructW, ptr %88, i32 0, i32 1
  store ptr null, ptr %89, align 8, !tbaa !50
  %90 = load ptr, ptr %9, align 8, !tbaa !46
  %91 = load ptr, ptr %5, align 8, !tbaa !25
  %92 = getelementptr inbounds nuw %struct.UriUriStructW, ptr %91, i32 0, i32 6
  store ptr %90, ptr %92, align 8, !tbaa !51
  store i32 0, ptr %4, align 4
  store i32 1, ptr %10, align 4
  br label %118

93:                                               ; preds = %79
  %94 = load ptr, ptr %12, align 8, !tbaa !46
  %95 = getelementptr inbounds nuw %struct.UriPathSegmentStructW, ptr %94, i32 0, i32 0
  %96 = load ptr, ptr %8, align 8, !tbaa !46
  %97 = getelementptr inbounds nuw %struct.UriPathSegmentStructW, ptr %96, i32 0, i32 0
  call void @llvm.memcpy.p0.p0.i64(ptr align 8 %95, ptr align 8 %97, i64 16, i1 false), !tbaa.struct !33
  %98 = load ptr, ptr %12, align 8, !tbaa !46
  %99 = load ptr, ptr %9, align 8, !tbaa !46
  %100 = getelementptr inbounds nuw %struct.UriPathSegmentStructW, ptr %99, i32 0, i32 1
  store ptr %98, ptr %100, align 8, !tbaa !50
  %101 = load ptr, ptr %8, align 8, !tbaa !46
  %102 = getelementptr inbounds nuw %struct.UriPathSegmentStructW, ptr %101, i32 0, i32 1
  %103 = load ptr, ptr %102, align 8, !tbaa !50
  %104 = icmp eq ptr %103, null
  br i1 %104, label %105, label %113

105:                                              ; preds = %93
  %106 = load ptr, ptr %12, align 8, !tbaa !46
  %107 = load ptr, ptr %5, align 8, !tbaa !25
  %108 = getelementptr inbounds nuw %struct.UriUriStructW, ptr %107, i32 0, i32 6
  store ptr %106, ptr %108, align 8, !tbaa !51
  %109 = load ptr, ptr %5, align 8, !tbaa !25
  %110 = getelementptr inbounds nuw %struct.UriUriStructW, ptr %109, i32 0, i32 6
  %111 = load ptr, ptr %110, align 8, !tbaa !51
  %112 = getelementptr inbounds nuw %struct.UriPathSegmentStructW, ptr %111, i32 0, i32 1
  store ptr null, ptr %112, align 8, !tbaa !50
  store i32 2, ptr %10, align 4
  br label %118

113:                                              ; preds = %93
  %114 = load ptr, ptr %12, align 8, !tbaa !46
  store ptr %114, ptr %9, align 8, !tbaa !46
  %115 = load ptr, ptr %8, align 8, !tbaa !46
  %116 = getelementptr inbounds nuw %struct.UriPathSegmentStructW, ptr %115, i32 0, i32 1
  %117 = load ptr, ptr %116, align 8, !tbaa !50
  store ptr %117, ptr %8, align 8, !tbaa !46
  store i32 0, ptr %10, align 4
  br label %118

118:                                              ; preds = %113, %105, %87
  call void @llvm.lifetime.end.p0(i64 8, ptr %12) #5
  %119 = load i32, ptr %10, align 4
  switch i32 %119, label %122 [
    i32 0, label %120
    i32 2, label %121
  ]

120:                                              ; preds = %118
  br label %79

121:                                              ; preds = %118
  store i32 1, ptr %4, align 4
  store i32 1, ptr %10, align 4
  br label %122

122:                                              ; preds = %121, %118, %74, %41, %17
  call void @llvm.lifetime.end.p0(i64 8, ptr %9) #5
  call void @llvm.lifetime.end.p0(i64 8, ptr %8) #5
  %123 = load i32, ptr %4, align 4
  ret i32 %123
}